(iannlib.ann
ANN
p0
(dp1
S'layers'
p2
(lp3
(iannlib.lib.layer
Layer
p4
(dp5
S'nodes'
p6
(lp7
(iannlib.lib.node
Node
p8
(dp9
S'reset'
p10
I01
sS'layer'
p11
g4
sS'activation_level_derivative'
p12
F1.0
sS'membrane_potential'
p13
F0.0
sS'prev_activation_level'
p14
F0.0
sS'activation_level'
p15
F0.0
sS'error_term'
p16
F0.0
sS'is_bias'
p17
I00
sba(iannlib.lib.node
Node
p18
(dp19
g10
I01
sg11
g4
sg12
F1.0
sg13
F0.0
sg14
F0.0
sg15
F0.0
sg16
F0.0
sg17
I00
sba(iannlib.lib.node
Node
p20
(dp21
g10
I01
sg11
g4
sg12
F1.0
sg13
F0.0
sg14
F0.0
sg15
F0.0
sg16
F0.0
sg17
I00
sba(iannlib.lib.node
Node
p22
(dp23
g10
I01
sg11
g4
sg12
F1.0
sg13
F0.0
sg14
F0.0
sg15
F0.0
sg16
F0.0
sg17
I00
sba(iannlib.lib.node
Node
p24
(dp25
g10
I01
sg11
g4
sg12
F1.0
sg13
F0.0
sg14
F0.0
sg15
F0.0
sg16
F0.0
sg17
I00
sba(iannlib.lib.node
Node
p26
(dp27
g10
I01
sg11
g4
sg12
F1.0
sg13
F0.0
sg14
F0.0
sg15
F1.0
sg16
F0.0
sg17
I00
sba(iannlib.lib.node
Node
p28
(dp29
g10
I01
sg11
g4
sg12
F0.0
sg13
F0.0
sg14
F0.0
sg15
F1.0
sg16
F0.0
sg17
I01
sbasS'links_out'
p30
(lp31
(iannlib.lib.link
Link
p32
(dp33
S'pre'
p34
g4
sS'post'
p35
(iannlib.lib.layer
Layer
p36
(dp37
g6
(lp38
(iannlib.lib.node
Node
p39
(dp40
g10
I01
sg11
g36
sg12
F0.1560698925046787
sg13
F0.0
sg14
F0.0
sg15
F0.8064801910325059
sg16
F0.0
sg17
I00
sba(iannlib.lib.node
Node
p41
(dp42
g10
I01
sg11
g36
sg12
F0.23449877049613596
sg13
F0.0
sg14
F0.0
sg15
F0.37549606631168619
sg16
F0.0
sg17
I00
sba(iannlib.lib.node
Node
p43
(dp44
g10
I01
sg11
g36
sg12
F0.16398104288703552
sg13
F0.0
sg14
F0.0
sg15
F0.79328988580066051
sg16
F0.0
sg17
I00
sba(iannlib.lib.node
Node
p45
(dp46
g10
I01
sg11
g36
sg12
F0.126396032742292
sg13
F0.0
sg14
F0.0
sg15
F0.85157355881480623
sg16
F0.0
sg17
I00
sba(iannlib.lib.node
Node
p47
(dp48
g10
I01
sg11
g36
sg12
F0.24945605719868399
sg13
F0.0
sg14
F0.0
sg15
F0.52332258136047571
sg16
F0.0
sg17
I00
sba(iannlib.lib.node
Node
p49
(dp50
g10
I01
sg11
g36
sg12
F0.24833019974721987
sg13
F0.0
sg14
F0.0
sg15
F0.54086318945922041
sg16
F0.0
sg17
I00
sba(iannlib.lib.node
Node
p51
(dp52
g10
I01
sg11
g36
sg12
F0.0
sg13
F0.0
sg14
F0.0
sg15
F1.0
sg16
F0.0
sg17
I01
sbasg30
(lp53
(iannlib.lib.link
Link
p54
(dp55
g34
g36
sg35
(iannlib.lib.layer
Layer
p56
(dp57
g6
(lp58
(iannlib.lib.node
Node
p59
(dp60
g10
I01
sg11
g56
sg12
F1.0
sg13
F0.0
sg14
F0.0
sg15
F0.69992118247970803
sg16
F0.0
sg17
I00
sba(iannlib.lib.node
Node
p61
(dp62
g10
I01
sg11
g56
sg12
F1.0
sg13
F0.0
sg14
F0.0
sg15
F0.99998610458882053
sg16
F0.0
sg17
I00
sbasg30
(lp63
sS'is_active'
p64
I01
sS'options'
p65
(dp66
S'training'
p67
(dp68
S'quiescence'
p69
I01
sS'is_active'
p70
I01
ssS'name'
p71
S'output'
p72
sS'activation_function'
p73
S'linear'
p74
sS'testing'
p75
(dp76
S'quiescence'
p77
I01
sS'is_active'
p78
I01
ssS'step_threshold'
p79
F0.5
sS'max_rounds'
p80
I20
sS'quiescence'
p81
I01
sS'learning_mode'
p82
I00
sS'bias_node'
p83
I00
sS'quiescent_threshold'
p84
F0.10000000000000001
sS'size'
p85
I2
ssS'links_in'
p86
(lp87
g54
asbsg65
(dp88
S'pre'
p89
S'hidden'
p90
sg73
g74
sS'learning_rate'
p91
F0.10000000000000001
sg75
g76
sg80
I20
sg82
I00
sS'learning_rule'
p92
S'oja'
p93
sg84
F0.10000000000000001
sS'plastic'
p94
I00
sS'post'
p95
S'output'
p96
sg85
I2
sS'connection_type'
p97
S'full'
p98
sg67
g68
sg71
S'hidden_output'
p99
sg79
F0.5
sS'stochastic_p'
p100
F0.5
sS'custom'
p101
I00
sg81
I01
sS'weights'
p102
(lp103
F0.29999999999999999
aF0.69999999999999996
asg83
I00
sS'theta'
p104
F0.5
sS'display'
p105
I01
ssS'arcs'
p106
(lp107
(lp108
(iannlib.lib.arc
Arc
p109
(dp110
g34
g39
sS'deltas'
p111
(lp112
sS'weight'
p113
F2.6615443228327291
sS'link'
p114
g54
sS'initial_weight'
p115
F0.61007438549555904
sg35
g59
sS'prev_delta'
p116
F1.0751090251704835e-05
sba(iannlib.lib.arc
Arc
p117
(dp118
g34
g41
sg111
(lp119
sg113
F-0.21429568999108847
sg114
g54
sg115
F0.5515104728750353
sg35
g59
sg116
F5.0057106490378482e-06
sba(iannlib.lib.arc
Arc
p120
(dp121
g34
g43
sg111
(lp122
sg113
F0.31476030721960752
sg114
g54
sg115
F0.36222438473743296
sg35
g59
sg116
F1.0575266017366531e-05
sba(iannlib.lib.arc
Arc
p123
(dp124
g34
g45
sg111
(lp125
sg113
F0.25180237848397929
sg114
g54
sg115
F0.50449711610576886
sg35
g59
sg116
F1.1352240651328e-05
sba(iannlib.lib.arc
Arc
p126
(dp127
g34
g47
sg111
(lp128
sg113
F-0.58592268727055963
sg114
g54
sg115
F0.3549976918864135
sg35
g59
sg116
F6.9763823577065026e-06
sba(iannlib.lib.arc
Arc
p129
(dp130
g34
g49
sg111
(lp131
sg113
F-0.02799785541625863
sg114
g54
sg115
F0.53048480387334251
sg35
g59
sg116
F7.2101849528587487e-06
sba(iannlib.lib.arc
Arc
p132
(dp133
g34
g51
sg111
(lp134
sg113
F-1.5084492359946178
sg114
g54
sg115
F0.33533575805570248
sg35
g59
sg116
F1.3330903286012941e-05
sbaa(lp135
(iannlib.lib.arc
Arc
p136
(dp137
g34
g39
sg111
(lp138
sg113
F-2.2577320017219762
sg114
g54
sg115
F0.64949958292850463
sg35
g61
sg116
F2.1259415598966224e-06
sba(iannlib.lib.arc
Arc
p139
(dp140
g34
g41
sg111
(lp141
sg113
F-1.2203134405945975
sg114
g54
sg115
F0.51141513980296649
sg35
g61
sg116
F9.8983898901966208e-07
sba(iannlib.lib.arc
Arc
p142
(dp143
g34
g43
sg111
(lp144
sg113
F0.91002558555230839
sg114
g54
sg115
F0.54712902098930682
sg35
g61
sg116
F2.0911737327957824e-06
sba(iannlib.lib.arc
Arc
p145
(dp146
g34
g45
sg111
(lp147
sg113
F2.3800641349148814
sg114
g54
sg115
F0.58245269616638828
sg35
g61
sg116
F2.2448142126589497e-06
sba(iannlib.lib.arc
Arc
p148
(dp149
g34
g47
sg111
(lp150
sg113
F-1.5270979452417799
sg114
g54
sg115
F0.4065763915266159
sg35
g61
sg116
F1.3795234571327294e-06
sba(iannlib.lib.arc
Arc
p151
(dp152
g34
g49
sg111
(lp153
sg113
F2.4296665437410629
sg114
g54
sg115
F0.61690344772330474
sg35
g61
sg116
F1.42575603840671e-06
sba(iannlib.lib.arc
Arc
p154
(dp155
g34
g51
sg111
(lp156
sg113
F0.015359001356949021
sg114
g54
sg115
F0.33214592855688158
sg35
g61
sg116
F2.6360788220713974e-06
sbaasbasg64
I01
sg65
(dp157
g67
(dp158
S'quiescence'
p159
I01
sS'is_active'
p160
I01
ssg71
S'hidden'
p161
sg73
S'logistic'
p162
sg75
(dp163
S'quiescence'
p164
I01
sS'is_active'
p165
I01
ssg79
F0.5
sg80
I20
sg81
I01
sg82
I00
sg83
I01
sg84
F0.10000000000000001
sg85
I6
ssg86
(lp166
g32
asbsg65
(dp167
g89
S'input'
p168
sg73
g74
sg91
F0.10000000000000001
sg75
g76
sg80
I20
sg82
I00
sg92
S'oja'
p169
sg84
F0.10000000000000001
sg94
I00
sg95
S'hidden'
p170
sg85
I2
sg97
S'full'
p171
sg67
g68
sg71
S'input_hidden'
p172
sg79
F0.5
sg100
F0.5
sg101
I00
sg81
I01
sg102
(lp173
F0.29999999999999999
aF0.69999999999999996
asg83
I00
sg104
F0.5
sg105
I01
ssg106
(lp174
(lp175
(iannlib.lib.arc
Arc
p176
(dp177
g34
g8
sg111
(lp178
sg113
F2.4241478782038333
sg114
g32
sg115
F0.47933730571277766
sg35
g39
sg116
F0.0
sba(iannlib.lib.arc
Arc
p179
(dp180
g34
g18
sg111
(lp181
sg113
F0.21074982052287905
sg114
g32
sg115
F0.60125965986864927
sg35
g39
sg116
F0.0
sba(iannlib.lib.arc
Arc
p182
(dp183
g34
g20
sg111
(lp184
sg113
F4.1718413673352366
sg114
g32
sg115
F0.66539068967431703
sg35
g39
sg116
F0.0
sba(iannlib.lib.arc
Arc
p185
(dp186
g34
g22
sg111
(lp187
sg113
F-0.25148764359886672
sg114
g32
sg115
F0.41062714328461736
sg35
g39
sg116
F0.0
sba(iannlib.lib.arc
Arc
p188
(dp189
g34
g24
sg111
(lp190
sg113
F-0.61619384207906502
sg114
g32
sg115
F0.38755354413497023
sg35
g39
sg116
F0.0
sba(iannlib.lib.arc
Arc
p191
(dp192
g34
g26
sg111
(lp193
sg113
F1.033234459264925
sg114
g32
sg115
F0.33629442203494375
sg35
g39
sg116
F4.608626615944622e-06
sba(iannlib.lib.arc
Arc
p194
(dp195
g34
g28
sg111
(lp196
sg113
F0.39406499719747984
sg114
g32
sg115
F0.44117736563934462
sg35
g39
sg116
F4.608626615944622e-06
sbaa(lp197
(iannlib.lib.arc
Arc
p198
(dp199
g34
g8
sg111
(lp200
sg113
F0.35243661598209081
sg114
g32
sg115
F0.45612187995425219
sg35
g41
sg116
F0.0
sba(iannlib.lib.arc
Arc
p201
(dp202
g34
g18
sg111
(lp203
sg113
F-0.10619495801919937
sg114
g32
sg115
F0.36612363417337884
sg35
g41
sg116
F0.0
sba(iannlib.lib.arc
Arc
p204
(dp205
g34
g20
sg111
(lp206
sg113
F0.30157696298723136
sg114
g32
sg115
F0.61198696708557287
sg35
g41
sg116
F0.0
sba(iannlib.lib.arc
Arc
p207
(dp208
g34
g22
sg111
(lp209
sg113
F0.65808005366896327
sg114
g32
sg115
F0.65224104343847533
sg35
g41
sg116
F0.0
sba(iannlib.lib.arc
Arc
p210
(dp211
g34
g24
sg111
(lp212
sg113
F0.43464137216032106
sg114
g32
sg115
F0.50467206801876108
sg35
g41
sg116
F0.0
sba(iannlib.lib.arc
Arc
p213
(dp214
g34
g26
sg111
(lp215
sg113
F0.40605542058413574
sg114
g32
sg115
F0.53237419269761688
sg35
g41
sg116
F-1.4242684247996445e-06
sba(iannlib.lib.arc
Arc
p216
(dp217
g34
g28
sg111
(lp218
sg113
F-0.91476505378874706
sg114
g32
sg115
F0.4251028977223722
sg35
g41
sg116
F-1.4242684247996445e-06
sbaa(lp219
(iannlib.lib.arc
Arc
p220
(dp221
g34
g8
sg111
(lp222
sg113
F1.2326451815206336
sg114
g32
sg115
F0.51841923649202681
sg35
g43
sg116
F0.0
sba(iannlib.lib.arc
Arc
p223
(dp224
g34
g18
sg111
(lp225
sg113
F0.47936896061107165
sg114
g32
sg115
F0.65781472162463794
sg35
g43
sg116
F0.0
sba(iannlib.lib.arc
Arc
p226
(dp227
g34
g20
sg111
(lp228
sg113
F1.0407965010057605
sg114
g32
sg115
F0.49357250675907183
sg35
g43
sg116
F0.0
sba(iannlib.lib.arc
Arc
p229
(dp230
g34
g22
sg111
(lp231
sg113
F1.1201853032666271
sg114
g32
sg115
F0.61066492003444517
sg35
g43
sg116
F0.0
sba(iannlib.lib.arc
Arc
p232
(dp233
g34
g24
sg111
(lp234
sg113
F0.69982661414162328
sg114
g32
sg115
F0.52293847416251982
sg35
g43
sg116
F0.0
sba(iannlib.lib.arc
Arc
p235
(dp236
g34
g26
sg111
(lp237
sg113
F1.0858029714857875
sg114
g32
sg115
F0.68023998450574719
sg35
g43
sg116
F1.0814222248858017e-06
sba(iannlib.lib.arc
Arc
p238
(dp239
g34
g28
sg111
(lp240
sg113
F0.25906834194183259
sg114
g32
sg115
F0.52766948784504153
sg35
g43
sg116
F1.0814222248858017e-06
sbaa(lp241
(iannlib.lib.arc
Arc
p242
(dp243
g34
g8
sg111
(lp244
sg113
F2.1065293888868579
sg114
g32
sg115
F0.34343898166503872
sg35
g45
sg116
F0.0
sba(iannlib.lib.arc
Arc
p245
(dp246
g34
g18
sg111
(lp247
sg113
F1.7507481249831034
sg114
g32
sg115
F0.67753940884622788
sg35
g45
sg116
F0.0
sba(iannlib.lib.arc
Arc
p248
(dp249
g34
g20
sg111
(lp250
sg113
F1.0282094202352452
sg114
g32
sg115
F0.31438913463964402
sg35
g45
sg116
F0.0
sba(iannlib.lib.arc
Arc
p251
(dp252
g34
g22
sg111
(lp253
sg113
F1.0975756734780213
sg114
g32
sg115
F0.56697132358634128
sg35
g45
sg116
F0.0
sba(iannlib.lib.arc
Arc
p254
(dp255
g34
g24
sg111
(lp256
sg113
F1.3561884935298429
sg114
g32
sg115
F0.65037035966385703
sg35
g45
sg116
F0.0
sba(iannlib.lib.arc
Arc
p257
(dp258
g34
g26
sg111
(lp259
sg113
F1.7490955365779919
sg114
g32
sg115
F0.68567412938796546
sg35
g45
sg116
F1.2172758325313764e-06
sba(iannlib.lib.arc
Arc
p260
(dp261
g34
g28
sg111
(lp262
sg113
F-0.0020991428368961934
sg114
g32
sg115
F0.40833348647992312
sg35
g45
sg116
F1.2172758325313764e-06
sbaa(lp263
(iannlib.lib.arc
Arc
p264
(dp265
g34
g8
sg111
(lp266
sg113
F0.55185432383990862
sg114
g32
sg115
F0.69133114346802549
sg35
g47
sg116
F0.0
sba(iannlib.lib.arc
Arc
p267
(dp268
g34
g18
sg111
(lp269
sg113
F0.66989928634560669
sg114
g32
sg115
F0.42647448006275768
sg35
g47
sg116
F0.0
sba(iannlib.lib.arc
Arc
p270
(dp271
g34
g20
sg111
(lp272
sg113
F2.2016169523839033
sg114
g32
sg115
F0.44491032947122366
sg35
g47
sg116
F0.0
sba(iannlib.lib.arc
Arc
p273
(dp274
g34
g22
sg111
(lp275
sg113
F-0.30809110088992975
sg114
g32
sg115
F0.30328564265151031
sg35
g47
sg116
F0.0
sba(iannlib.lib.arc
Arc
p276
(dp277
g34
g24
sg111
(lp278
sg113
F-0.43963319759114572
sg114
g32
sg115
F0.41726378054077723
sg35
g47
sg116
F0.0
sba(iannlib.lib.arc
Arc
p279
(dp280
g34
g26
sg111
(lp281
sg113
F-0.051521328863261405
sg114
g32
sg115
F0.35161823065792169
sg35
g47
sg116
F-2.9526922605383216e-06
sba(iannlib.lib.arc
Arc
p282
(dp283
g34
g28
sg111
(lp284
sg113
F0.14487940223752302
sg114
g32
sg115
F0.54953765045628988
sg35
g47
sg116
F-2.9526922605383216e-06
sbaa(lp285
(iannlib.lib.arc
Arc
p286
(dp287
g34
g8
sg111
(lp288
sg113
F1.0437526634845904
sg114
g32
sg115
F0.36317042820309758
sg35
g49
sg116
F0.0
sba(iannlib.lib.arc
Arc
p289
(dp290
g34
g18
sg111
(lp291
sg113
F-0.45440793580166428
sg114
g32
sg115
F0.30601387191150298
sg35
g49
sg116
F0.0
sba(iannlib.lib.arc
Arc
p292
(dp293
g34
g20
sg111
(lp294
sg113
F0.38128645169188125
sg114
g32
sg115
F0.41282275279590597
sg35
g49
sg116
F0.0
sba(iannlib.lib.arc
Arc
p295
(dp296
g34
g22
sg111
(lp297
sg113
F-1.9449849602992224
sg114
g32
sg115
F0.3435326116019739
sg35
g49
sg116
F0.0
sba(iannlib.lib.arc
Arc
p298
(dp299
g34
g24
sg111
(lp300
sg113
F-1.0997348878339734
sg114
g32
sg115
F0.68358704293250305
sg35
g49
sg116
F0.0
sba(iannlib.lib.arc
Arc
p301
(dp302
g34
g26
sg111
(lp303
sg113
F0.8781306607587902
sg114
g32
sg115
F0.53517113969221863
sg35
g49
sg116
F1.4977930253280979e-06
sba(iannlib.lib.arc
Arc
p304
(dp305
g34
g28
sg111
(lp306
sg113
F-0.71431252627075992
sg114
g32
sg115
F0.60850357721418291
sg35
g49
sg116
F1.4977930253280979e-06
sbaa(lp307
I00
aI00
aI00
aI00
aI00
aI00
aI00
aasbasg64
I01
sg65
(dp308
g67
(dp309
S'quiescence'
p310
I01
sS'is_active'
p311
I01
ssg71
S'input'
p312
sg73
S'linear'
p313
sg75
(dp314
S'quiescence'
p315
I01
sS'is_active'
p316
I01
ssg79
F0.5
sg80
I20
sg81
I01
sg82
I00
sg83
I01
sg84
F0.10000000000000001
sg85
I6
ssg86
(lp317
sbag36
ag56
asS'backpropagator'
p318
(iannlib.lib.backprop
Backprop
p319
(dp320
S'ann'
p321
g0
sS'momentum'
p322
F4.8912498938283408e-322
sbsS'mode'
p323
S'testing'
p324
sS'links'
p325
(lp326
g32
ag54
asb.