(iannlib.ann
ANN
p0
(dp1
S'layers'
p2
(lp3
(iannlib.lib.layer
Layer
p4
(dp5
S'nodes'
p6
(lp7
(iannlib.lib.node
Node
p8
(dp9
S'reset'
p10
I01
sS'layer'
p11
g4
sS'activation_level_derivative'
p12
F1.0
sS'membrane_potential'
p13
F0.0
sS'prev_activation_level'
p14
F0.0
sS'activation_level'
p15
F1.0
sS'error_term'
p16
F0.0
sS'is_bias'
p17
I00
sba(iannlib.lib.node
Node
p18
(dp19
g10
I01
sg11
g4
sg12
F1.0
sg13
F0.0
sg14
F0.0
sg15
F1.0
sg16
F0.0
sg17
I00
sba(iannlib.lib.node
Node
p20
(dp21
g10
I01
sg11
g4
sg12
F0.0
sg13
F0.0
sg14
F0.0
sg15
F1.0
sg16
F0.0
sg17
I01
sbasS'links_out'
p22
(lp23
(iannlib.lib.link
Link
p24
(dp25
S'pre'
p26
g4
sS'post'
p27
(iannlib.lib.layer
Layer
p28
(dp29
g6
(lp30
(iannlib.lib.node
Node
p31
(dp32
g10
I01
sg11
g28
sg12
F0.13391456549047864
sg13
F0.0
sg14
F0.0
sg15
F0.84071312641212015
sg16
F0.0
sg17
I00
sba(iannlib.lib.node
Node
p33
(dp34
g10
I01
sg11
g28
sg12
F0.019707492677207301
sg13
F0.0
sg14
F0.0
sg15
F0.97988801539816839
sg16
F0.0
sg17
I00
sba(iannlib.lib.node
Node
p35
(dp36
g10
I01
sg11
g28
sg12
F0.0
sg13
F0.0
sg14
F0.0
sg15
F1.0
sg16
F0.0
sg17
I01
sbasg22
(lp37
(iannlib.lib.link
Link
p38
(dp39
g26
g28
sg27
(iannlib.lib.layer
Layer
p40
(dp41
g6
(lp42
(iannlib.lib.node
Node
p43
(dp44
g10
I01
sg11
g40
sg12
F1.0
sg13
F0.0
sg14
F0.0
sg15
F0.98251254736813665
sg16
F0.0
sg17
I00
sba(iannlib.lib.node
Node
p45
(dp46
g10
I01
sg11
g40
sg12
F1.0
sg13
F0.0
sg14
F0.0
sg15
F0.0046993208837404765
sg16
F0.0
sg17
I00
sbasg22
(lp47
sS'is_active'
p48
I01
sS'options'
p49
(dp50
S'training'
p51
(dp52
S'quiescence'
p53
I01
sS'is_active'
p54
I01
ssS'name'
p55
S'output'
p56
sS'activation_function'
p57
S'linear'
p58
sS'testing'
p59
(dp60
S'quiescence'
p61
I01
sS'is_active'
p62
I01
ssS'step_threshold'
p63
F0.5
sS'max_rounds'
p64
I20
sS'quiescence'
p65
I01
sS'learning_mode'
p66
I00
sS'bias_node'
p67
I00
sS'quiescent_threshold'
p68
F0.10000000000000001
sS'size'
p69
I2
ssS'links_in'
p70
(lp71
g38
asbsg49
(dp72
S'pre'
p73
S'hidden'
p74
sg57
g58
sS'learning_rate'
p75
F0.10000000000000001
sg59
g60
sg64
I20
sg66
I00
sS'learning_rule'
p76
S'oja'
p77
sg68
F0.10000000000000001
sS'plastic'
p78
I00
sS'post'
p79
S'output'
p80
sg69
I2
sS'connection_type'
p81
S'full'
p82
sg51
g52
sg55
S'hidden_output'
p83
sg63
F0.5
sS'stochastic_p'
p84
F0.5
sS'custom'
p85
I00
sg65
I01
sS'weights'
p86
(lp87
F0.29999999999999999
aF0.69999999999999996
asg67
I00
sS'theta'
p88
F0.5
sS'display'
p89
I00
ssS'arcs'
p90
(lp91
(lp92
(iannlib.lib.arc
Arc
p93
(dp94
g26
g31
sS'deltas'
p95
(lp96
sS'weight'
p97
F-0.56879825323175404
sS'link'
p98
g38
sS'initial_weight'
p99
F0.41985970312651649
sg27
g43
sS'prev_delta'
p100
F0.0020069690463444903
sba(iannlib.lib.arc
Arc
p101
(dp102
g26
g33
sg95
(lp103
sg97
F2.5322142011060356
sg98
g38
sg99
F0.64090497683009606
sg27
g43
sg100
F0.0023391918155497332
sba(iannlib.lib.arc
Arc
p104
(dp105
g26
g35
sg95
(lp106
sg97
F-1.0205776429444942
sg98
g38
sg99
F0.43246600726790557
sg27
g43
sg100
F0.0023872202612539532
sbaa(lp107
(iannlib.lib.arc
Arc
p108
(dp109
g26
g31
sg95
(lp110
sg97
F-2.1077892002925429
sg98
g38
sg99
F0.37027284247094638
sg27
g45
sg100
F-0.0005385557818938508
sba(iannlib.lib.arc
Arc
p111
(dp112
g26
g33
sg95
(lp113
sg97
F0.054583831061099257
sg98
g38
sg99
F0.49886743508292897
sg27
g45
sg100
F-0.00062770538465337382
sba(iannlib.lib.arc
Arc
p114
(dp115
g26
g35
sg95
(lp116
sg97
F1.7232593273880972
sg98
g38
sg99
F0.64700051143660231
sg27
g45
sg100
F-0.00064059347437079868
sbaasbasg48
I01
sg49
(dp117
g51
(dp118
S'quiescence'
p119
I01
sS'is_active'
p120
I01
ssg55
S'hidden'
p121
sg57
S'logistic'
p122
sg59
(dp123
S'quiescence'
p124
I01
sS'is_active'
p125
I01
ssg63
F0.5
sg64
I20
sg65
I01
sg66
I00
sg67
I01
sg68
F0.10000000000000001
sg69
I2
ssg70
(lp126
g24
asbsg49
(dp127
g73
S'input'
p128
sg57
g58
sg75
F0.10000000000000001
sg59
g60
sg64
I20
sg66
I00
sg76
S'oja'
p129
sg68
F0.10000000000000001
sg78
I00
sg79
S'hidden'
p130
sg69
I2
sg81
S'full'
p131
sg51
g52
sg55
S'input_hidden'
p132
sg63
F0.5
sg84
F0.5
sg85
I00
sg65
I01
sg86
(lp133
F0.29999999999999999
aF0.69999999999999996
asg67
I00
sg88
F0.5
sg89
I00
ssg90
(lp134
(lp135
(iannlib.lib.arc
Arc
p136
(dp137
g26
g8
sg95
(lp138
sg97
F2.2570423664419388
sg98
g24
sg99
F0.60337723678289856
sg27
g31
sg100
F-1.7069735639060697e-06
sba(iannlib.lib.arc
Arc
p139
(dp140
g26
g18
sg95
(lp141
sg97
F-0.043101550545325579
sg98
g24
sg99
F0.53746898539098598
sg27
g31
sg100
F-1.7069735639060697e-06
sba(iannlib.lib.arc
Arc
p142
(dp143
g26
g20
sg95
(lp144
sg97
F-0.55039713715015881
sg98
g24
sg99
F0.45393413919789211
sg27
g31
sg100
F-1.7069735639060697e-06
sbaa(lp145
(iannlib.lib.arc
Arc
p146
(dp147
g26
g8
sg95
(lp148
sg97
F3.9516681995711274
sg98
g24
sg99
F0.44618659725577392
sg27
g33
sg100
F0.00011836413284833279
sba(iannlib.lib.arc
Arc
p149
(dp150
g26
g18
sg95
(lp151
sg97
F-2.0541044076776176
sg98
g24
sg99
F0.39672197471439063
sg27
g33
sg100
F0.00011836413284833279
sba(iannlib.lib.arc
Arc
p152
(dp153
g26
g20
sg95
(lp154
sg97
F1.9885586170132674
sg98
g24
sg99
F0.56985776853658954
sg27
g33
sg100
F0.00011836413284833279
sbaa(lp155
I00
aI00
aI00
aasbasg48
I01
sg49
(dp156
g51
(dp157
S'quiescence'
p158
I01
sS'is_active'
p159
I01
ssg55
S'input'
p160
sg57
S'linear'
p161
sg59
(dp162
S'quiescence'
p163
I01
sS'is_active'
p164
I01
ssg63
F0.5
sg64
I20
sg65
I01
sg66
I00
sg67
I01
sg68
F0.10000000000000001
sg69
I2
ssg70
(lp165
sbag28
ag40
asS'backpropagator'
p166
(iannlib.lib.backprop
Backprop
p167
(dp168
S'ann'
p169
g0
sS'momentum'
p170
F4.8912498938283408e-322
sbsS'mode'
p171
S'testing'
p172
sS'links'
p173
(lp174
g24
ag38
asb.