(iannlib.ann
ANN
p0
(dp1
S'layers'
p2
(lp3
(iannlib.lib.layer
Layer
p4
(dp5
S'nodes'
p6
(lp7
(iannlib.lib.node
Node
p8
(dp9
S'reset'
p10
I01
sS'layer'
p11
g4
sS'activation_level_derivative'
p12
F1.0
sS'membrane_potential'
p13
F0.0
sS'prev_activation_level'
p14
F0.0
sS'activation_level'
p15
F1.0
sS'error_term'
p16
F0.0
sS'is_bias'
p17
I00
sba(iannlib.lib.node
Node
p18
(dp19
g10
I01
sg11
g4
sg12
F1.0
sg13
F0.0
sg14
F0.0
sg15
F1.0
sg16
F0.0
sg17
I00
sba(iannlib.lib.node
Node
p20
(dp21
g10
I01
sg11
g4
sg12
F0.0
sg13
F0.0
sg14
F0.0
sg15
F1.0
sg16
F0.0
sg17
I01
sbasS'links_out'
p22
(lp23
(iannlib.lib.link
Link
p24
(dp25
S'pre'
p26
g4
sS'post'
p27
(iannlib.lib.layer
Layer
p28
(dp29
g6
(lp30
(iannlib.lib.node
Node
p31
(dp32
g10
I01
sg11
g28
sg12
F0.00080511032368180591
sg13
F0.0
sg14
F0.0
sg15
F0.00080575957216994941
sg16
F0.0
sg17
I00
sba(iannlib.lib.node
Node
p33
(dp34
g10
I01
sg11
g28
sg12
F0.1712822688908533
sg13
F0.0
sg14
F0.0
sg15
F0.219433196708615
sg16
F0.0
sg17
I00
sba(iannlib.lib.node
Node
p35
(dp36
g10
I01
sg11
g28
sg12
F0.0
sg13
F0.0
sg14
F0.0
sg15
F1.0
sg16
F0.0
sg17
I01
sbasg22
(lp37
(iannlib.lib.link
Link
p38
(dp39
g26
g28
sg27
(iannlib.lib.layer
Layer
p40
(dp41
g6
(lp42
(iannlib.lib.node
Node
p43
(dp44
g10
I01
sg11
g40
sg12
F1.0
sg13
F0.0
sg14
F0.0
sg15
F0.01007864268420755
sg16
F0.0
sg17
I00
sbasg22
(lp45
sS'is_active'
p46
I01
sS'options'
p47
(dp48
S'training'
p49
(dp50
S'quiescence'
p51
I01
sS'is_active'
p52
I01
ssS'name'
p53
S'output'
p54
sS'activation_function'
p55
S'linear'
p56
sS'testing'
p57
(dp58
S'quiescence'
p59
I01
sS'is_active'
p60
I01
ssS'step_threshold'
p61
F0.5
sS'max_rounds'
p62
I20
sS'quiescence'
p63
I01
sS'learning_mode'
p64
I00
sS'bias_node'
p65
I00
sS'quiescent_threshold'
p66
F0.10000000000000001
sS'size'
p67
I1
ssS'links_in'
p68
(lp69
g38
asbsg47
(dp70
S'pre'
p71
S'hidden'
p72
sg55
g56
sS'learning_rate'
p73
F0.20000000000000001
sg57
g58
sg62
I20
sg64
I00
sS'learning_rule'
p74
S'oja'
p75
sg66
F0.10000000000000001
sS'plastic'
p76
I00
sS'post'
p77
S'output'
p78
sg67
I1
sS'connection_type'
p79
S'full'
p80
sg49
g50
sg53
S'hidden_output'
p81
sg61
F0.5
sS'stochastic_p'
p82
F0.5
sS'custom'
p83
I00
sg63
I01
sS'weights'
p84
(lp85
F0.29999999999999999
aF0.69999999999999996
asg65
I00
sS'theta'
p86
F0.5
sS'display'
p87
I01
ssS'arcs'
p88
(lp89
(lp90
(iannlib.lib.arc
Arc
p91
(dp92
g26
g31
sS'deltas'
p93
(lp94
sS'weight'
p95
F-3.4014895516790884
sS'link'
p96
g38
sS'initial_weight'
p97
F0.44893739385532555
sg27
g43
sS'prev_delta'
p98
F-2.6649210694906e-06
sba(iannlib.lib.arc
Arc
p99
(dp100
g26
g33
sg93
(lp101
sg95
F3.1974266929046351
sg96
g38
sg97
F0.55517068555162852
sg27
g43
sg98
F-0.00072885321430008853
sba(iannlib.lib.arc
Arc
p102
(dp103
g26
g35
sg93
(lp104
sg95
F-0.6888021350154101
sg96
g38
sg97
F0.59127101240535285
sg27
g43
sg98
F-0.0033074300521693137
sbaasbasg46
I01
sg47
(dp105
g49
(dp106
S'quiescence'
p107
I01
sS'is_active'
p108
I01
ssg53
S'hidden'
p109
sg55
S'logistic'
p110
sg57
(dp111
S'quiescence'
p112
I01
sS'is_active'
p113
I01
ssg61
F0.5
sg62
I20
sg63
I01
sg64
I00
sg65
I01
sg66
F0.10000000000000001
sg67
I2
ssg68
(lp114
g24
asbsg47
(dp115
g71
S'input'
p116
sg55
g56
sg73
F0.20000000000000001
sg57
g58
sg62
I20
sg64
I00
sg74
S'oja'
p117
sg66
F0.10000000000000001
sg76
I00
sg77
S'hidden'
p118
sg67
I1
sg79
S'full'
p119
sg49
g50
sg53
S'input_hidden'
p120
sg61
F0.5
sg82
F0.5
sg83
I00
sg63
I01
sg84
(lp121
F0.29999999999999999
aF0.69999999999999996
asg65
I00
sg86
F0.5
sg87
I01
ssg88
(lp122
(lp123
(iannlib.lib.arc
Arc
p124
(dp125
g26
g8
sg93
(lp126
sg95
F-3.6197432135317622
sg96
g24
sg97
F0.52034007986090136
sg27
g31
sg98
F9.0573903064019833e-06
sba(iannlib.lib.arc
Arc
p127
(dp128
g26
g18
sg93
(lp129
sg95
F-3.9020757929649355
sg96
g24
sg97
F0.68496851510246082
sg27
g31
sg98
F9.0573903064019833e-06
sba(iannlib.lib.arc
Arc
p130
(dp131
g26
g20
sg93
(lp132
sg95
F0.39889993335449114
sg96
g24
sg97
F0.43890303569944483
sg27
g31
sg98
F9.0573903064019833e-06
sbaa(lp133
(iannlib.lib.arc
Arc
p134
(dp135
g26
g8
sg93
(lp136
sg95
F-1.4981120960027554
sg96
g24
sg97
F0.58299605032324786
sg27
g33
sg98
F-0.0018173102028711246
sba(iannlib.lib.arc
Arc
p137
(dp138
g26
g18
sg93
(lp139
sg95
F-1.5323942280243419
sg96
g24
sg97
F0.55595654681900908
sg27
g33
sg98
F-0.0018173102028711246
sba(iannlib.lib.arc
Arc
p140
(dp141
g26
g20
sg93
(lp142
sg95
F1.7615338405348699
sg96
g24
sg97
F0.31575222089840804
sg27
g33
sg98
F-0.0018173102028711246
sbaa(lp143
I00
aI00
aI00
aasbasg46
I01
sg47
(dp144
g49
(dp145
S'quiescence'
p146
I01
sS'is_active'
p147
I01
ssg53
S'input'
p148
sg55
S'linear'
p149
sg57
(dp150
S'quiescence'
p151
I01
sS'is_active'
p152
I01
ssg61
F0.5
sg62
I20
sg63
I01
sg64
I00
sg65
I01
sg66
F0.10000000000000001
sg67
I2
ssg68
(lp153
sbag28
ag40
asS'backpropagator'
p154
(iannlib.lib.backprop
Backprop
p155
(dp156
S'ann'
p157
g0
sS'momentum'
p158
F3.6280068886288657e-163
sbsS'mode'
p159
S'testing'
p160
sS'links'
p161
(lp162
g24
ag38
asb.