(iannlib.ann
ANN
p0
(dp1
S'layers'
p2
(lp3
(iannlib.lib.layer
Layer
p4
(dp5
S'nodes'
p6
(lp7
(iannlib.lib.node
Node
p8
(dp9
S'reset'
p10
I01
sS'layer'
p11
g4
sS'activation_level_derivative'
p12
F1.0
sS'membrane_potential'
p13
F0.0
sS'prev_activation_level'
p14
F0.0
sS'activation_level'
p15
F1.0
sS'error_term'
p16
F0.0
sS'is_bias'
p17
I00
sba(iannlib.lib.node
Node
p18
(dp19
g10
I01
sg11
g4
sg12
F1.0
sg13
F0.0
sg14
F0.0
sg15
F1.0
sg16
F0.0
sg17
I00
sba(iannlib.lib.node
Node
p20
(dp21
g10
I01
sg11
g4
sg12
F1.0
sg13
F0.0
sg14
F0.0
sg15
F1.0
sg16
F0.0
sg17
I00
sba(iannlib.lib.node
Node
p22
(dp23
g10
I01
sg11
g4
sg12
F1.0
sg13
F0.0
sg14
F0.0
sg15
F1.0
sg16
F0.0
sg17
I00
sba(iannlib.lib.node
Node
p24
(dp25
g10
I01
sg11
g4
sg12
F1.0
sg13
F0.0
sg14
F0.0
sg15
F1.0
sg16
F0.0
sg17
I00
sba(iannlib.lib.node
Node
p26
(dp27
g10
I01
sg11
g4
sg12
F0.0
sg13
F0.0
sg14
F0.0
sg15
F1.0
sg16
F0.0
sg17
I01
sbasS'links_out'
p28
(lp29
(iannlib.lib.link
Link
p30
(dp31
S'pre'
p32
g4
sS'post'
p33
(iannlib.lib.layer
Layer
p34
(dp35
g6
(lp36
(iannlib.lib.node
Node
p37
(dp38
g10
I01
sg11
g34
sg12
F0.00020576264657655484
sg13
F0.0
sg14
F0.0
sg15
F0.99979419499772448
sg16
F0.0
sg17
I00
sba(iannlib.lib.node
Node
p39
(dp40
g10
I01
sg11
g34
sg12
F0.20444722430264686
sg13
F0.0
sg14
F0.0
sg15
F0.2865690376319473
sg16
F0.0
sg17
I00
sba(iannlib.lib.node
Node
p41
(dp42
g10
I01
sg11
g34
sg12
F0.00067217426579340963
sg13
F0.0
sg14
F0.0
sg15
F0.99932737330753918
sg16
F0.0
sg17
I00
sba(iannlib.lib.node
Node
p43
(dp44
g10
I01
sg11
g34
sg12
F0.0008779608429944015
sg13
F0.0
sg14
F0.0
sg15
F0.99912126698529447
sg16
F0.0
sg17
I00
sba(iannlib.lib.node
Node
p45
(dp46
g10
I01
sg11
g34
sg12
F0.0022447163379933741
sg13
F0.0
sg14
F0.0
sg15
F0.99775022216168485
sg16
F0.0
sg17
I00
sba(iannlib.lib.node
Node
p47
(dp48
g10
I01
sg11
g34
sg12
F0.0
sg13
F0.0
sg14
F0.0
sg15
F1.0
sg16
F0.0
sg17
I01
sbasg28
(lp49
(iannlib.lib.link
Link
p50
(dp51
g32
g34
sg33
(iannlib.lib.layer
Layer
p52
(dp53
g6
(lp54
(iannlib.lib.node
Node
p55
(dp56
g10
I01
sg11
g52
sg12
F1.0
sg13
F0.0
sg14
F0.0
sg15
F0.99535607708055795
sg16
F0.0
sg17
I00
sba(iannlib.lib.node
Node
p57
(dp58
g10
I01
sg11
g52
sg12
F1.0
sg13
F0.0
sg14
F0.0
sg15
F0.99097097478983776
sg16
F0.0
sg17
I00
sbasg28
(lp59
sS'is_active'
p60
I01
sS'options'
p61
(dp62
S'training'
p63
(dp64
S'quiescence'
p65
I01
sS'is_active'
p66
I01
ssS'name'
p67
S'output'
p68
sS'activation_function'
p69
S'linear'
p70
sS'testing'
p71
(dp72
S'quiescence'
p73
I01
sS'is_active'
p74
I01
ssS'step_threshold'
p75
F0.5
sS'max_rounds'
p76
I20
sS'quiescence'
p77
I01
sS'learning_mode'
p78
I00
sS'bias_node'
p79
I00
sS'quiescent_threshold'
p80
F0.10000000000000001
sS'size'
p81
I2
ssS'links_in'
p82
(lp83
g50
asbsg61
(dp84
S'pre'
p85
S'hidden'
p86
sg69
g70
sS'learning_rate'
p87
F0.29999999999999999
sg71
g72
sg76
I20
sg78
I00
sS'learning_rule'
p88
S'oja'
p89
sg80
F0.10000000000000001
sS'plastic'
p90
I00
sS'post'
p91
S'output'
p92
sg81
I2
sS'connection_type'
p93
S'full'
p94
sg63
g64
sg67
S'hidden_output'
p95
sg75
F0.5
sS'stochastic_p'
p96
F0.5
sS'custom'
p97
I00
sg77
I01
sS'weights'
p98
(lp99
F0.29999999999999999
aF0.69999999999999996
asg79
I00
sS'theta'
p100
F0.5
sS'display'
p101
I00
ssS'arcs'
p102
(lp103
(lp104
(iannlib.lib.arc
Arc
p105
(dp106
g32
g37
sS'deltas'
p107
(lp108
sS'weight'
p109
F0.82475225001819008
sS'link'
p110
g50
sS'initial_weight'
p111
F0.6455407706364642
sg33
g55
sS'prev_delta'
p112
F-0.0026667813439277539
sba(iannlib.lib.arc
Arc
p113
(dp114
g32
g39
sg107
(lp115
sg109
F0.77204963902635004
sg110
g50
sg111
F0.68044410603654948
sg33
g55
sg112
F-0.00076437652134492143
sba(iannlib.lib.arc
Arc
p116
(dp117
g32
g41
sg107
(lp118
sg109
F1.0732332427974969
sg110
g50
sg111
F0.65893257626741297
sg33
g55
sg112
F-0.0026655362266883361
sba(iannlib.lib.arc
Arc
p119
(dp120
g32
g43
sg107
(lp121
sg109
F-1.7706103916586473
sg110
g50
sg111
F0.43564681639546671
sg33
g55
sg112
F-0.002664986309578875
sba(iannlib.lib.arc
Arc
p122
(dp123
g32
g45
sg107
(lp124
sg109
F1.1562094768406608
sg110
g50
sg111
F0.67882040171944924
sg33
g55
sg112
F-0.0026613292402693704
sba(iannlib.lib.arc
Arc
p125
(dp126
g32
g47
sg107
(lp127
sg109
F-0.5075370788618675
sg110
g50
sg111
F0.6702104700617173
sg33
g55
sg112
F-0.0026673302846224709
sbaa(lp128
(iannlib.lib.arc
Arc
p129
(dp130
g32
g37
sg107
(lp131
sg109
F2.192936186877033
sg110
g50
sg111
F0.62217678914487307
sg33
g57
sg112
F-0.0051858285098220153
sba(iannlib.lib.arc
Arc
p132
(dp133
g32
g39
sg107
(lp134
sg109
F-0.39825333420841424
sg110
g50
sg111
F0.40223300355449443
sg33
g57
sg112
F-0.0014864081622795607
sba(iannlib.lib.arc
Arc
p135
(dp136
g32
g41
sg107
(lp137
sg109
F1.0310497102733003
sg110
g50
sg111
F0.64894557304800438
sg33
g57
sg112
F-0.0051834072522663685
sba(iannlib.lib.arc
Arc
p138
(dp139
g32
g43
sg107
(lp140
sg109
F-0.71910480321894077
sg110
g50
sg111
F0.32198258747312636
sg33
g57
sg112
F-0.0051823378823194184
sba(iannlib.lib.arc
Arc
p141
(dp142
g32
g45
sg107
(lp143
sg109
F-0.94488010807877298
sg110
g50
sg111
F0.3020943683684954
sg33
g57
sg112
F-0.0051752263377862276
sba(iannlib.lib.arc
Arc
p144
(dp145
g32
g47
sg107
(lp146
sg109
F-0.45651577901029039
sg110
g50
sg111
F0.50257929411511226
sg33
g57
sg112
F-0.0051868959810308368
sbaasbasg60
I01
sg61
(dp147
g63
(dp148
S'quiescence'
p149
I01
sS'is_active'
p150
I01
ssg67
S'hidden'
p151
sg69
S'logistic'
p152
sg71
(dp153
S'quiescence'
p154
I01
sS'is_active'
p155
I01
ssg75
F0.5
sg76
I20
sg77
I01
sg78
I00
sg79
I01
sg80
F0.10000000000000001
sg81
I5
ssg82
(lp156
g30
asbsg61
(dp157
g85
S'input'
p158
sg69
g70
sg87
F0.29999999999999999
sg71
g72
sg76
I20
sg78
I00
sg88
S'oja'
p159
sg80
F0.10000000000000001
sg90
I00
sg91
S'hidden'
p160
sg81
I2
sg93
S'full'
p161
sg63
g64
sg67
S'input_hidden'
p162
sg75
F0.5
sg96
F0.5
sg97
I00
sg77
I01
sg98
(lp163
F0.29999999999999999
aF0.69999999999999996
asg79
I00
sg100
F0.5
sg101
I00
ssg102
(lp164
(lp165
(iannlib.lib.arc
Arc
p166
(dp167
g32
g8
sg107
(lp168
sg109
F2.0306552735556509
sg110
g30
sg111
F0.68030941610542173
sg33
g37
sg112
F-2.8000595675940069e-06
sba(iannlib.lib.arc
Arc
p169
(dp170
g32
g18
sg107
(lp171
sg109
F0.57222712849820856
sg110
g30
sg111
F0.34197571223245071
sg33
g37
sg112
F-2.8000595675940069e-06
sba(iannlib.lib.arc
Arc
p172
(dp173
g32
g20
sg107
(lp174
sg109
F2.4896535322957578
sg110
g30
sg111
F0.60497415597196624
sg33
g37
sg112
F-2.8000595675940069e-06
sba(iannlib.lib.arc
Arc
p175
(dp176
g32
g22
sg107
(lp177
sg109
F2.6963370565950759
sg110
g30
sg111
F0.60681021935304802
sg33
g37
sg112
F-2.8000595675940069e-06
sba(iannlib.lib.arc
Arc
p178
(dp179
g32
g24
sg107
(lp180
sg109
F0.56905115900142123
sg110
g30
sg111
F0.50866127651465454
sg33
g37
sg112
F-2.8000595675940069e-06
sba(iannlib.lib.arc
Arc
p181
(dp182
g32
g26
sg107
(lp183
sg109
F0.13045145224147686
sg110
g30
sg111
F0.44749809175002531
sg33
g37
sg112
F-2.8000595675940069e-06
sbaa(lp184
(iannlib.lib.arc
Arc
p185
(dp186
g32
g8
sg107
(lp187
sg109
F-0.56413579013128867
sg110
g30
sg111
F0.35547672127241786
sg33
g39
sg112
F-6.8724113655963498e-07
sba(iannlib.lib.arc
Arc
p188
(dp189
g32
g18
sg107
(lp190
sg109
F-0.71545382948288327
sg110
g30
sg111
F0.30750975735032743
sg33
g39
sg112
F-6.8724113655963498e-07
sba(iannlib.lib.arc
Arc
p191
(dp192
g32
g20
sg107
(lp193
sg109
F0.23239711130189367
sg110
g30
sg111
F0.38400184557721173
sg33
g39
sg112
F-6.8724113655963498e-07
sba(iannlib.lib.arc
Arc
p194
(dp195
g32
g22
sg107
(lp196
sg109
F0.46584935364269153
sg110
g30
sg111
F0.52272910902183933
sg33
g39
sg112
F-6.8724113655963498e-07
sba(iannlib.lib.arc
Arc
p197
(dp198
g32
g24
sg107
(lp199
sg109
F0.48005983324294155
sg110
g30
sg111
F0.45659497804504989
sg33
g39
sg112
F-6.8724113655963498e-07
sba(iannlib.lib.arc
Arc
p200
(dp201
g32
g26
sg107
(lp202
sg109
F-0.81082287551566912
sg110
g30
sg111
F0.40679975050766282
sg33
g39
sg112
F-6.8724113655963498e-07
sbaa(lp203
(iannlib.lib.arc
Arc
p204
(dp205
g32
g8
sg107
(lp206
sg109
F1.4310312704769337
sg110
g30
sg111
F0.46753798157408288
sg33
g41
sg112
F-5.5416311907301393e-06
sba(iannlib.lib.arc
Arc
p207
(dp208
g32
g18
sg107
(lp209
sg109
F2.9737719103564464
sg110
g30
sg111
F0.50416378119281458
sg33
g41
sg112
F-5.5416311907301393e-06
sba(iannlib.lib.arc
Arc
p210
(dp211
g32
g20
sg107
(lp212
sg109
F1.4598054763437218
sg110
g30
sg111
F0.44584612000507706
sg33
g41
sg112
F-5.5416311907301393e-06
sba(iannlib.lib.arc
Arc
p213
(dp214
g32
g22
sg107
(lp215
sg109
F0.54255202927558621
sg110
g30
sg111
F0.61198277098526921
sg33
g41
sg112
F-5.5416311907301393e-06
sba(iannlib.lib.arc
Arc
p216
(dp217
g32
g24
sg107
(lp218
sg109
F0.87050867771066309
sg110
g30
sg111
F0.62771760291278245
sg33
g41
sg112
F-5.5416311907301393e-06
sba(iannlib.lib.arc
Arc
p219
(dp220
g32
g26
sg107
(lp221
sg109
F0.025977856784520543
sg110
g30
sg111
F0.44083738077538359
sg33
g41
sg112
F-5.5416311907301393e-06
sbaa(lp222
(iannlib.lib.arc
Arc
p223
(dp224
g32
g8
sg107
(lp225
sg109
F1.5716668901629154
sg110
g30
sg111
F0.53291852646949855
sg33
g43
sg112
F7.3916476920560442e-06
sba(iannlib.lib.arc
Arc
p226
(dp227
g32
g18
sg107
(lp228
sg109
F2.7643462019104481
sg110
g30
sg111
F0.47089794812738306
sg33
g43
sg112
F7.3916476920560442e-06
sba(iannlib.lib.arc
Arc
p229
(dp230
g32
g20
sg107
(lp231
sg109
F-0.18139345997974407
sg110
g30
sg111
F0.30605324180426902
sg33
g43
sg112
F7.3916476920560442e-06
sba(iannlib.lib.arc
Arc
p232
(dp233
g32
g22
sg107
(lp234
sg109
F2.3207612609860142
sg110
g30
sg111
F0.66606034551003457
sg33
g43
sg112
F7.3916476920560442e-06
sba(iannlib.lib.arc
Arc
p235
(dp236
g32
g24
sg107
(lp237
sg109
F-0.71534010648597923
sg110
g30
sg111
F0.5969887395607073
sg33
g43
sg112
F7.3916476920560442e-06
sba(iannlib.lib.arc
Arc
p238
(dp239
g32
g26
sg107
(lp240
sg109
F1.2761095380324947
sg110
g30
sg111
F0.64660706402307722
sg33
g43
sg112
F7.3916476920560442e-06
sbaa(lp241
(iannlib.lib.arc
Arc
p242
(dp243
g32
g8
sg107
(lp244
sg109
F0.15982558048603301
sg110
g30
sg111
F0.39004727814369217
sg33
g45
sg112
F4.0025602256511554e-06
sba(iannlib.lib.arc
Arc
p245
(dp246
g32
g18
sg107
(lp247
sg109
F1.8287225982493289
sg110
g30
sg111
F0.5489244105361194
sg33
g45
sg112
F4.0025602256511554e-06
sba(iannlib.lib.arc
Arc
p248
(dp249
g32
g20
sg107
(lp250
sg109
F0.99680080747604394
sg110
g30
sg111
F0.55526574708712895
sg33
g45
sg112
F4.0025602256511554e-06
sba(iannlib.lib.arc
Arc
p251
(dp252
g32
g22
sg107
(lp253
sg109
F1.2616958642889728
sg110
g30
sg111
F0.45056726537395986
sg33
g45
sg112
F4.0025602256511554e-06
sba(iannlib.lib.arc
Arc
p254
(dp255
g32
g24
sg107
(lp256
sg109
F1.5218584784789853
sg110
g30
sg111
F0.54896700464788251
sg33
g45
sg112
F4.0025602256511554e-06
sba(iannlib.lib.arc
Arc
p257
(dp258
g32
g26
sg107
(lp259
sg109
F0.32576816479739495
sg110
g30
sg111
F0.52874742328266566
sg33
g45
sg112
F4.0025602256511554e-06
sbaa(lp260
I00
aI00
aI00
aI00
aI00
aI00
aasbasg60
I01
sg61
(dp261
g63
(dp262
S'quiescence'
p263
I01
sS'is_active'
p264
I01
ssg67
S'input'
p265
sg69
S'linear'
p266
sg71
(dp267
S'quiescence'
p268
I01
sS'is_active'
p269
I01
ssg75
F0.5
sg76
I20
sg77
I01
sg78
I00
sg79
I01
sg80
F0.10000000000000001
sg81
I5
ssg82
(lp270
sbag34
ag52
asS'backpropagator'
p271
(iannlib.lib.backprop
Backprop
p272
(dp273
S'ann'
p274
g0
sS'momentum'
p275
F4.8912498938283408e-322
sbsS'mode'
p276
S'testing'
p277
sS'links'
p278
(lp279
g30
ag50
asb.