(iannlib.ann
ANN
p0
(dp1
S'layers'
p2
(lp3
(iannlib.lib.layer
Layer
p4
(dp5
S'nodes'
p6
(lp7
(iannlib.lib.node
Node
p8
(dp9
S'reset'
p10
I01
sS'layer'
p11
g4
sS'activation_level_derivative'
p12
F0.0
sS'membrane_potential'
p13
F0.0
sS'prev_activation_level'
p14
F1.0
sS'activation_level'
p15
F1.0
sS'error_term'
p16
F0.0
sS'is_bias'
p17
I00
sba(iannlib.lib.node
Node
p18
(dp19
g10
I01
sg11
g4
sg12
F0.0
sg13
F0.0
sg14
F1.0
sg15
F1.0
sg16
F0.0
sg17
I00
sba(iannlib.lib.node
Node
p20
(dp21
g10
I01
sg11
g4
sg12
F0.0
sg13
F0.0
sg14
F1.0
sg15
F1.0
sg16
F0.0
sg17
I01
sbasS'links_out'
p22
(lp23
(iannlib.lib.link
Link
p24
(dp25
S'pre'
p26
g4
sS'post'
p27
(iannlib.lib.layer
Layer
p28
(dp29
g6
(lp30
(iannlib.lib.node
Node
p31
(dp32
g10
I01
sg11
g28
sg12
F0.0
sg13
F0.0
sg14
F1.0
sg15
F1.0
sg16
F0.0
sg17
I00
sba(iannlib.lib.node
Node
p33
(dp34
g10
I01
sg11
g28
sg12
F0.0
sg13
F0.0
sg14
F1.0
sg15
F1.0
sg16
F0.0
sg17
I00
sba(iannlib.lib.node
Node
p35
(dp36
g10
I01
sg11
g28
sg12
F0.0
sg13
F0.0
sg14
F1.0
sg15
F1.0
sg16
F0.0
sg17
I00
sba(iannlib.lib.node
Node
p37
(dp38
g10
I01
sg11
g28
sg12
F0.0
sg13
F0.0
sg14
F1.0
sg15
F1.0
sg16
F0.0
sg17
I00
sba(iannlib.lib.node
Node
p39
(dp40
g10
I01
sg11
g28
sg12
F0.0
sg13
F0.0
sg14
F1.0
sg15
F1.0
sg16
F0.0
sg17
I01
sbasg22
(lp41
(iannlib.lib.link
Link
p42
(dp43
g26
g28
sg27
(iannlib.lib.layer
Layer
p44
(dp45
g6
(lp46
(iannlib.lib.node
Node
p47
(dp48
g10
I01
sg11
g44
sg12
F0.0
sg13
F0.0
sg14
F1.0
sg15
F1.0
sg16
F0.0
sg17
I00
sba(iannlib.lib.node
Node
p49
(dp50
g10
I01
sg11
g44
sg12
F0.0
sg13
F0.0
sg14
F1.0
sg15
F1.0
sg16
F0.0
sg17
I00
sbasg22
(lp51
(iannlib.lib.link
Link
p52
(dp53
g26
g44
sg27
g28
sS'options'
p54
(dp55
S'pre'
p56
S'output'
p57
sS'activation_function'
p58
S'linear'
p59
sS'learning_rate'
p60
F0.10000000000000001
sS'testing'
p61
(dp62
S'quiescence'
p63
I01
sS'is_active'
p64
I01
ssS'max_rounds'
p65
I20
sS'learning_mode'
p66
I00
sS'learning_rule'
p67
S'oja'
p68
sS'quiescent_threshold'
p69
F0.10000000000000001
sS'plastic'
p70
I00
sS'post'
p71
S'hidden'
p72
sS'size'
p73
I2
sS'connection_type'
p74
S'full'
p75
sS'training'
p76
(dp77
S'quiescence'
p78
I01
sS'is_active'
p79
I01
ssS'name'
p80
S'output_hidden'
p81
sS'step_threshold'
p82
F0.5
sS'stochastic_p'
p83
F0.5
sS'custom'
p84
I00
sS'quiescence'
p85
I01
sS'weights'
p86
(lp87
F0.29999999999999999
aF0.69999999999999996
asS'bias_node'
p88
I00
sS'theta'
p89
F0.5
sS'display'
p90
I00
ssS'arcs'
p91
(lp92
(lp93
(iannlib.lib.arc
Arc
p94
(dp95
g26
g47
sS'deltas'
p96
(lp97
sS'weight'
p98
F0.37871132325711476
sS'link'
p99
g52
sS'initial_weight'
p100
F0.37871132325711476
sg27
g31
sS'prev_delta'
p101
F0.0
sba(iannlib.lib.arc
Arc
p102
(dp103
g26
g49
sg96
(lp104
sg98
F0.46207452349656913
sg99
g52
sg100
F0.46207452349656913
sg27
g31
sg101
F0.0
sbaa(lp105
(iannlib.lib.arc
Arc
p106
(dp107
g26
g47
sg96
(lp108
sg98
F0.65375842450018107
sg99
g52
sg100
F0.65375842450018107
sg27
g33
sg101
F0.0
sba(iannlib.lib.arc
Arc
p109
(dp110
g26
g49
sg96
(lp111
sg98
F0.66644328479716031
sg99
g52
sg100
F0.66644328479716031
sg27
g33
sg101
F0.0
sbaa(lp112
(iannlib.lib.arc
Arc
p113
(dp114
g26
g47
sg96
(lp115
sg98
F0.34066134406005499
sg99
g52
sg100
F0.34066134406005499
sg27
g35
sg101
F0.0
sba(iannlib.lib.arc
Arc
p116
(dp117
g26
g49
sg96
(lp118
sg98
F0.35077986914889747
sg99
g52
sg100
F0.35077986914889747
sg27
g35
sg101
F0.0
sbaa(lp119
(iannlib.lib.arc
Arc
p120
(dp121
g26
g47
sg96
(lp122
sg98
F0.47828202202102754
sg99
g52
sg100
F0.47828202202102754
sg27
g37
sg101
F0.0
sba(iannlib.lib.arc
Arc
p123
(dp124
g26
g49
sg96
(lp125
sg98
F0.30847988181892039
sg99
g52
sg100
F0.30847988181892039
sg27
g37
sg101
F0.0
sbaa(lp126
I00
aI00
aasbasS'is_active'
p127
I01
sg54
(dp128
g76
g77
sg80
S'output'
p129
sg58
g59
sg61
g62
sg82
F0.5
sg65
I20
sg85
I01
sg66
I00
sg88
I00
sg69
F0.10000000000000001
sg73
I2
ssS'links_in'
p130
(lp131
g42
asbsg54
(dp132
g56
S'hidden'
p133
sg58
g59
sg60
F0.10000000000000001
sg61
g62
sg65
I20
sg66
I00
sg67
S'oja'
p134
sg69
F0.10000000000000001
sg70
I00
sg71
S'output'
p135
sg73
I2
sg74
S'full'
p136
sg76
g77
sg80
S'hidden_output'
p137
sg82
F0.5
sg83
F0.5
sg84
I00
sg85
I01
sg86
(lp138
F0.29999999999999999
aF0.69999999999999996
asg88
I00
sg89
F0.5
sg90
I00
ssg91
(lp139
(lp140
(iannlib.lib.arc
Arc
p141
(dp142
g26
g31
sg96
(lp143
sg98
F0.53406589052732567
sg99
g42
sg100
F0.53406589052732567
sg27
g47
sg101
F0.0
sba(iannlib.lib.arc
Arc
p144
(dp145
g26
g33
sg96
(lp146
sg98
F0.38395083304243305
sg99
g42
sg100
F0.38395083304243305
sg27
g47
sg101
F0.0
sba(iannlib.lib.arc
Arc
p147
(dp148
g26
g35
sg96
(lp149
sg98
F0.44130226250191679
sg99
g42
sg100
F0.44130226250191679
sg27
g47
sg101
F0.0
sba(iannlib.lib.arc
Arc
p150
(dp151
g26
g37
sg96
(lp152
sg98
F0.65767395959881791
sg99
g42
sg100
F0.65767395959881791
sg27
g47
sg101
F0.0
sba(iannlib.lib.arc
Arc
p153
(dp154
g26
g39
sg96
(lp155
sg98
F0.66218956145859942
sg99
g42
sg100
F0.66218956145859942
sg27
g47
sg101
F0.0
sbaa(lp156
(iannlib.lib.arc
Arc
p157
(dp158
g26
g31
sg96
(lp159
sg98
F0.5917461879486936
sg99
g42
sg100
F0.5917461879486936
sg27
g49
sg101
F0.0
sba(iannlib.lib.arc
Arc
p160
(dp161
g26
g33
sg96
(lp162
sg98
F0.3718712013069902
sg99
g42
sg100
F0.3718712013069902
sg27
g49
sg101
F0.0
sba(iannlib.lib.arc
Arc
p163
(dp164
g26
g35
sg96
(lp165
sg98
F0.64201879839619436
sg99
g42
sg100
F0.64201879839619436
sg27
g49
sg101
F0.0
sba(iannlib.lib.arc
Arc
p166
(dp167
g26
g37
sg96
(lp168
sg98
F0.33128703037224211
sg99
g42
sg100
F0.33128703037224211
sg27
g49
sg101
F0.0
sba(iannlib.lib.arc
Arc
p169
(dp170
g26
g39
sg96
(lp171
sg98
F0.66586954330058246
sg99
g42
sg100
F0.66586954330058246
sg27
g49
sg101
F0.0
sbaasbasg127
I01
sg54
(dp172
g76
(dp173
S'quiescence'
p174
I01
sS'is_active'
p175
I01
ssg80
S'hidden'
p176
sg58
S'logistic'
p177
sg61
(dp178
S'quiescence'
p179
I01
sS'is_active'
p180
I01
ssg82
F0.5
sg65
I20
sg85
I01
sg66
I00
sg88
I01
sg69
F0.10000000000000001
sg73
I4
ssg130
(lp181
g24
ag52
asbsg54
(dp182
g56
S'input'
p183
sg58
g59
sg60
F0.10000000000000001
sg61
g62
sg65
I20
sg66
I00
sg67
S'oja'
p184
sg69
F0.10000000000000001
sg70
I00
sg71
S'hidden'
p185
sg73
I2
sg74
S'full'
p186
sg76
g77
sg80
S'input_hidden'
p187
sg82
F0.5
sg83
F0.5
sg84
I00
sg85
I01
sg86
(lp188
F0.29999999999999999
aF0.69999999999999996
asg88
I00
sg89
F0.5
sg90
I00
ssg91
(lp189
(lp190
(iannlib.lib.arc
Arc
p191
(dp192
g26
g8
sg96
(lp193
sg98
F0.65425009377843479
sg99
g24
sg100
F0.65425009377843479
sg27
g31
sg101
F0.0
sba(iannlib.lib.arc
Arc
p194
(dp195
g26
g18
sg96
(lp196
sg98
F0.45483458108111224
sg99
g24
sg100
F0.45483458108111224
sg27
g31
sg101
F0.0
sba(iannlib.lib.arc
Arc
p197
(dp198
g26
g20
sg96
(lp199
sg98
F0.48093405198253614
sg99
g24
sg100
F0.48093405198253614
sg27
g31
sg101
F0.0
sbaa(lp200
(iannlib.lib.arc
Arc
p201
(dp202
g26
g8
sg96
(lp203
sg98
F0.56418227232586571
sg99
g24
sg100
F0.56418227232586571
sg27
g33
sg101
F0.0
sba(iannlib.lib.arc
Arc
p204
(dp205
g26
g18
sg96
(lp206
sg98
F0.55210024635135513
sg99
g24
sg100
F0.55210024635135513
sg27
g33
sg101
F0.0
sba(iannlib.lib.arc
Arc
p207
(dp208
g26
g20
sg96
(lp209
sg98
F0.51713816252713674
sg99
g24
sg100
F0.51713816252713674
sg27
g33
sg101
F0.0
sbaa(lp210
(iannlib.lib.arc
Arc
p211
(dp212
g26
g8
sg96
(lp213
sg98
F0.65033984935853006
sg99
g24
sg100
F0.65033984935853006
sg27
g35
sg101
F0.0
sba(iannlib.lib.arc
Arc
p214
(dp215
g26
g18
sg96
(lp216
sg98
F0.32916498216934831
sg99
g24
sg100
F0.32916498216934831
sg27
g35
sg101
F0.0
sba(iannlib.lib.arc
Arc
p217
(dp218
g26
g20
sg96
(lp219
sg98
F0.50109983798639091
sg99
g24
sg100
F0.50109983798639091
sg27
g35
sg101
F0.0
sbaa(lp220
(iannlib.lib.arc
Arc
p221
(dp222
g26
g8
sg96
(lp223
sg98
F0.62235887109630084
sg99
g24
sg100
F0.62235887109630084
sg27
g37
sg101
F0.0
sba(iannlib.lib.arc
Arc
p224
(dp225
g26
g18
sg96
(lp226
sg98
F0.66423437688528364
sg99
g24
sg100
F0.66423437688528364
sg27
g37
sg101
F0.0
sba(iannlib.lib.arc
Arc
p227
(dp228
g26
g20
sg96
(lp229
sg98
F0.67552918187156885
sg99
g24
sg100
F0.67552918187156885
sg27
g37
sg101
F0.0
sbaa(lp230
I00
aI00
aI00
aasbasg127
I01
sg54
(dp231
g76
(dp232
S'quiescence'
p233
I01
sS'is_active'
p234
I01
ssg80
S'input'
p235
sg58
S'linear'
p236
sg61
(dp237
S'quiescence'
p238
I01
sS'is_active'
p239
I01
ssg82
F0.5
sg65
I20
sg85
I01
sg66
I00
sg88
I01
sg69
F0.10000000000000001
sg73
I2
ssg130
(lp240
sbag28
ag44
asS'backpropagator'
p241
(iannlib.lib.backprop
Backprop
p242
(dp243
S'ann'
p244
g0
sbsS'mode'
p245
S'training-backpropagation'
p246
sS'links'
p247
(lp248
g24
ag42
ag52
asb.